---
triple:          'arm64-apple-darwin'
binary-path:     '/Users/michael/Dropbox/Michael/Projects/MP2P/code/dem/dem_test'
relocations:
  - { offsetInCU: 0x4AE5A, offset: 0x4AE5A, size: 0x8, addend: 0x0, symName: __ZNSt3__124__put_character_sequenceB8ue170006IcNS_11char_traitsIcEEEERNS_13basic_ostreamIT_T0_EES7_PKS4_m, symObjAddr: 0x728C, symBinAddr: 0x1000097B8, symSize: 0x164 }
  - { offsetInCU: 0x5718E, offset: 0x5718E, size: 0x8, addend: 0x0, symName: __ZNSt3__17getlineB8ue170006IcNS_11char_traitsIcEENS_9allocatorIcEEEERNS_13basic_istreamIT_T0_EES9_RNS_12basic_stringIS6_S7_T1_EES6_, symObjAddr: 0x918, symBinAddr: 0x100002E44, symSize: 0x188 }
  - { offsetInCU: 0x57BD0, offset: 0x57BD0, size: 0x8, addend: 0x0, symName: __ZNSt3__127__tree_balance_after_insertB8ue170006IPNS_16__tree_node_baseIPvEEEEvT_S5_, symObjAddr: 0x77B4, symBinAddr: 0x100009CE0, symSize: 0x1B4 }
  - { offsetInCU: 0x57EFB, offset: 0x57EFB, size: 0x8, addend: 0x0, symName: __ZNSt3__113__tree_removeB8ue170006IPNS_16__tree_node_baseIPvEEEEvT_S5_, symObjAddr: 0x7A90, symBinAddr: 0x100009FBC, symSize: 0x3C4 }
  - { offsetInCU: 0x5B7EA, offset: 0x5B7EA, size: 0x8, addend: 0x0, symName: __ZNSt3__120__throw_length_errorB8ue170006EPKc, symObjAddr: 0x6E00, symBinAddr: 0x10000932C, symSize: 0x50 }
  - { offsetInCU: 0x5BA00, offset: 0x5BA00, size: 0x8, addend: 0x0, symName: __ZNSt3__116__pad_and_outputB8ue170006IcNS_11char_traitsIcEEEENS_19ostreambuf_iteratorIT_T0_EES6_PKS4_S8_S8_RNS_8ios_baseES4_, symObjAddr: 0x73F0, symBinAddr: 0x10000991C, symSize: 0x194 }
  - { offsetInCU: 0x5DF5E, offset: 0x5DF5E, size: 0x8, addend: 0x0, symName: __ZSt28__throw_bad_array_new_lengthB8ue170006v, symObjAddr: 0x6E74, symBinAddr: 0x1000093A0, symSize: 0x28 }
  - { offsetInCU: 0x66B49, offset: 0x66B49, size: 0x8, addend: 0x0, symName: __ZN3DEM9MeshGroup11output_fileEi, symObjAddr: 0x0, symBinAddr: 0x10000252C, symSize: 0x4 }
  - { offsetInCU: 0x66B80, offset: 0x66B80, size: 0x8, addend: 0x0, symName: __ZN3DEM9MeshGroup11output_fileEi, symObjAddr: 0x0, symBinAddr: 0x10000252C, symSize: 0x4 }
  - { offsetInCU: 0x66B9A, offset: 0x66B9A, size: 0x8, addend: 0x0, symName: __ZN3DEM9MeshGroup19output_position_stlEi, symObjAddr: 0x4, symBinAddr: 0x100002530, symSize: 0x7A4 }
  - { offsetInCU: 0x69782, offset: 0x69782, size: 0x8, addend: 0x0, symName: __ZNSt3__118basic_stringstreamIcNS_11char_traitsIcEENS_9allocatorIcEEEC1B8ue170006ERKNS_12basic_stringIcS2_S4_EEj, symObjAddr: 0x7B0, symBinAddr: 0x100002CDC, symSize: 0x168 }
  - { offsetInCU: 0x699C3, offset: 0x699C3, size: 0x8, addend: 0x0, symName: __ZNSt3__16vectorINS_12basic_stringIcNS_11char_traitsIcEENS_9allocatorIcEEEENS4_IS6_EEE21__push_back_slow_pathIRKS6_EEvOT_, symObjAddr: 0x6FEC, symBinAddr: 0x100009518, symSize: 0x228 }
  - { offsetInCU: 0x6A3DF, offset: 0x6A3DF, size: 0x8, addend: 0x0, symName: __ZNSt3__114basic_ofstreamIcNS_11char_traitsIcEEEC1ERKNS_12basic_stringIcS2_NS_9allocatorIcEEEEj, symObjAddr: 0xAA0, symBinAddr: 0x100002FCC, symSize: 0x114 }
  - { offsetInCU: 0x6A561, offset: 0x6A561, size: 0x8, addend: 0x0, symName: __ZNKSt3__112basic_stringIcNS_11char_traitsIcEENS_9allocatorIcEEE20__throw_length_errorB8ue170006Ev, symObjAddr: 0x6FD8, symBinAddr: 0x100009504, symSize: 0x14 }
  - { offsetInCU: 0x6A58B, offset: 0x6A58B, size: 0x8, addend: 0x0, symName: __ZNSt3__16vectorINS_12basic_stringIcNS_11char_traitsIcEENS_9allocatorIcEEEENS4_IS6_EEE21__push_back_slow_pathIRKS6_EEvOT_, symObjAddr: 0x6FEC, symBinAddr: 0x100009518, symSize: 0x228 }
  - { offsetInCU: 0x6A596, offset: 0x6A596, size: 0x8, addend: 0x0, symName: __ZNSt3__118basic_stringstreamIcNS_11char_traitsIcEENS_9allocatorIcEEED1Ev, symObjAddr: 0xC0C, symBinAddr: 0x100003138, symSize: 0x88 }
  - { offsetInCU: 0x6A734, offset: 0x6A734, size: 0x8, addend: 0x0, symName: __ZNSt3__16vectorINS_12basic_stringIcNS_11char_traitsIcEENS_9allocatorIcEEEENS4_IS6_EEED1B8ue170006Ev, symObjAddr: 0xC94, symBinAddr: 0x1000031C0, symSize: 0x74 }
  - { offsetInCU: 0x6A9E5, offset: 0x6A9E5, size: 0x8, addend: 0x0, symName: __ZNSt3__114basic_ofstreamIcNS_11char_traitsIcEEED1Ev, symObjAddr: 0xBB4, symBinAddr: 0x1000030E0, symSize: 0x58 }
  - { offsetInCU: 0x6AA2D, offset: 0x6AA2D, size: 0x8, addend: 0x0, symName: __ZN3DEM9MeshGroup19set_output_positionENSt3__112basic_stringIcNS1_11char_traitsIcEENS1_9allocatorIcEEEE, symObjAddr: 0x7A8, symBinAddr: 0x100002CD4, symSize: 0x8 }
  - { offsetInCU: 0x6ACF8, offset: 0x6ACF8, size: 0x8, addend: 0x0, symName: __ZN3DEM11SphereGroup11output_fileEi, symObjAddr: 0xD08, symBinAddr: 0x100003234, symSize: 0x4 }
  - { offsetInCU: 0x6AD2F, offset: 0x6AD2F, size: 0x8, addend: 0x0, symName: __ZN3DEM11SphereGroup11output_fileEi, symObjAddr: 0xD08, symBinAddr: 0x100003234, symSize: 0x4 }
  - { offsetInCU: 0x6AD49, offset: 0x6AD49, size: 0x8, addend: 0x0, symName: __ZN3DEM11SphereGroup27output_positionvelocity_csvEi, symObjAddr: 0xD0C, symBinAddr: 0x100003238, symSize: 0x67C }
  - { offsetInCU: 0x6CB35, offset: 0x6CB35, size: 0x8, addend: 0x0, symName: __ZN3DEM11SphereGroup27set_output_positionvelocityENSt3__112basic_stringIcNS1_11char_traitsIcEENS1_9allocatorIcEEEE, symObjAddr: 0x1388, symBinAddr: 0x1000038B4, symSize: 0x8 }
  - { offsetInCU: 0x6CEEE, offset: 0x6CEEE, size: 0x8, addend: 0x0, symName: __ZN3DEM23ColliderSphereMeshNaive17get_collision_vecEv, symObjAddr: 0x1390, symBinAddr: 0x1000038BC, symSize: 0xA0 }
  - { offsetInCU: 0x6D2C5, offset: 0x6D2C5, size: 0x8, addend: 0x0, symName: __ZNKSt3__16vectorINS_4pairIiiEENS_9allocatorIS2_EEE20__throw_length_errorB8ue170006Ev, symObjAddr: 0x7584, symBinAddr: 0x100009AB0, symSize: 0x14 }
  - { offsetInCU: 0x6D2EF, offset: 0x6D2EF, size: 0x8, addend: 0x0, symName: __ZNSt3__16vectorINS0_IdNS_9allocatorIdEEEENS1_IS3_EEEC2EmRKS3_, symObjAddr: 0x7598, symBinAddr: 0x100009AC4, symSize: 0x170 }
  - { offsetInCU: 0x6D57F, offset: 0x6D57F, size: 0x8, addend: 0x0, symName: __ZN3DEM23ColliderSphereMeshNaive20update_collision_vecEv, symObjAddr: 0x1430, symBinAddr: 0x10000395C, symSize: 0x1FC }
  - { offsetInCU: 0x6DA6A, offset: 0x6DA6A, size: 0x8, addend: 0x0, symName: __ZN3DEM25ColliderSphereSphereNaive17get_collision_vecEv, symObjAddr: 0x162C, symBinAddr: 0x100003B58, symSize: 0xA0 }
  - { offsetInCU: 0x6DA7F, offset: 0x6DA7F, size: 0x8, addend: 0x0, symName: __ZN3DEM25ColliderSphereSphereNaive17get_collision_vecEv, symObjAddr: 0x162C, symBinAddr: 0x100003B58, symSize: 0xA0 }
  - { offsetInCU: 0x6DE56, offset: 0x6DE56, size: 0x8, addend: 0x0, symName: __ZN3DEM25ColliderSphereSphereNaive20update_collision_vecEv, symObjAddr: 0x16CC, symBinAddr: 0x100003BF8, symSize: 0x204 }
  - { offsetInCU: 0x6E341, offset: 0x6E341, size: 0x8, addend: 0x0, symName: __ZN3DEM19ForceSphereConstant6updateEid, symObjAddr: 0x18D0, symBinAddr: 0x100003DFC, symSize: 0x40 }
  - { offsetInCU: 0x6E5FD, offset: 0x6E5FD, size: 0x8, addend: 0x0, symName: __ZN3DEM19ForceSphereConstant6updateEid, symObjAddr: 0x18D0, symBinAddr: 0x100003DFC, symSize: 0x40 }
  - { offsetInCU: 0x6E638, offset: 0x6E638, size: 0x8, addend: 0x0, symName: __ZN3DEM19ForceSphereConstant6updateEid, symObjAddr: 0x18D0, symBinAddr: 0x100003DFC, symSize: 0x40 }
  - { offsetInCU: 0x6EA47, offset: 0x6EA47, size: 0x8, addend: 0x0, symName: __ZN3DEM15ParameterBinary9get_valueEii, symObjAddr: 0x1910, symBinAddr: 0x100003E3C, symSize: 0x18 }
  - { offsetInCU: 0x6EA77, offset: 0x6EA77, size: 0x8, addend: 0x0, symName: __ZN3DEM15ParameterBinary9get_valueEii, symObjAddr: 0x1910, symBinAddr: 0x100003E3C, symSize: 0x18 }
  - { offsetInCU: 0x6EF4B, offset: 0x6EF4B, size: 0x8, addend: 0x0, symName: __ZN3DEM15ParameterBinary16reshape_triangleEv, symObjAddr: 0x1928, symBinAddr: 0x100003E54, symSize: 0x1A0 }
  - { offsetInCU: 0x6F66E, offset: 0x6F66E, size: 0x8, addend: 0x0, symName: __ZNSt3__16vectorINS0_IdNS_9allocatorIdEEEENS1_IS3_EEEC2EmRKS3_, symObjAddr: 0x7598, symBinAddr: 0x100009AC4, symSize: 0x170 }
  - { offsetInCU: 0x6FD41, offset: 0x6FD41, size: 0x8, addend: 0x0, symName: __ZNKSt3__16vectorIdNS_9allocatorIdEEE20__throw_length_errorB8ue170006Ev, symObjAddr: 0x6DEC, symBinAddr: 0x100009318, symSize: 0x14 }
  - { offsetInCU: 0x6FD6B, offset: 0x6FD6B, size: 0x8, addend: 0x0, symName: __ZNSt3__120__throw_length_errorB8ue170006EPKc, symObjAddr: 0x6E00, symBinAddr: 0x10000932C, symSize: 0x50 }
  - { offsetInCU: 0x6FDAB, offset: 0x6FDAB, size: 0x8, addend: 0x0, symName: __ZNSt3__16vectorINS0_IdNS_9allocatorIdEEEENS1_IS3_EEED1B8ue170006Ev, symObjAddr: 0x1AC8, symBinAddr: 0x100003FF4, symSize: 0x74 }
  - { offsetInCU: 0x70076, offset: 0x70076, size: 0x8, addend: 0x0, symName: __ZN3DEM15ParameterBinary14reshape_squareEv, symObjAddr: 0x1B3C, symBinAddr: 0x100004068, symSize: 0x5CC }
  - { offsetInCU: 0x70872, offset: 0x70872, size: 0x8, addend: 0x0, symName: __ZN3DEM26ForceMomentSphereMeshHertz6updateEid, symObjAddr: 0x2108, symBinAddr: 0x100004634, symSize: 0xC4 }
  - { offsetInCU: 0x70D4E, offset: 0x70D4E, size: 0x8, addend: 0x0, symName: __ZN3DEM26ForceMomentSphereMeshHertz18compute_force_pairEiid, symObjAddr: 0x21CC, symBinAddr: 0x1000046F8, symSize: 0x111C }
  - { offsetInCU: 0x799DC, offset: 0x799DC, size: 0x8, addend: 0x0, symName: __ZN3DEM26ForceMomentSphereMeshHertz25get_overlap_tangent_valueENSt3__14pairIiiEE, symObjAddr: 0x32E8, symBinAddr: 0x100005814, symSize: 0x164 }
  - { offsetInCU: 0x7C81F, offset: 0x7C81F, size: 0x8, addend: 0x0, symName: __ZN3DEM26ForceMomentSphereMeshHertz25get_overlap_tangent_valueENSt3__14pairIiiEE, symObjAddr: 0x32E8, symBinAddr: 0x100005814, symSize: 0x164 }
  - { offsetInCU: 0x7CC70, offset: 0x7CC70, size: 0x8, addend: 0x0, symName: __ZNSt3__16vectorIiNS_9allocatorIiEEE9push_backB8ue170006ERKi, symObjAddr: 0x344C, symBinAddr: 0x100005978, symSize: 0x170 }
  - { offsetInCU: 0x7D109, offset: 0x7D109, size: 0x8, addend: 0x0, symName: __ZN3DEM28ForceMomentSphereSphereHertz6updateEid, symObjAddr: 0x35BC, symBinAddr: 0x100005AE8, symSize: 0xB4 }
  - { offsetInCU: 0x7D114, offset: 0x7D114, size: 0x8, addend: 0x0, symName: __ZNSt3__16__treeINS_12__value_typeINS_4pairIiiEEdEENS_19__map_value_compareIS3_S4_NS_4lessIS3_EELb1EEENS_9allocatorIS4_EEE14__erase_uniqueIS3_EEmRKT_, symObjAddr: 0x7968, symBinAddr: 0x100009E94, symSize: 0x128 }
  - { offsetInCU: 0x7D7B0, offset: 0x7D7B0, size: 0x8, addend: 0x0, symName: __ZNKSt3__16vectorIiNS_9allocatorIiEEE20__throw_length_errorB8ue170006Ev, symObjAddr: 0x7E54, symBinAddr: 0x10000A380, symSize: 0x14 }
  - { offsetInCU: 0x7D7DA, offset: 0x7D7DA, size: 0x8, addend: 0x0, symName: __ZNKSt3__16vectorIN5Eigen6MatrixIdLi3ELi1ELi0ELi3ELi1EEENS_9allocatorIS3_EEE20__throw_length_errorB8ue170006Ev, symObjAddr: 0x7E68, symBinAddr: 0x10000A394, symSize: 0x14 }
  - { offsetInCU: 0x7D7F4, offset: 0x7D7F4, size: 0x8, addend: 0x0, symName: __ZN3DEM28ForceMomentSphereSphereHertz6updateEid, symObjAddr: 0x35BC, symBinAddr: 0x100005AE8, symSize: 0xB4 }
  - { offsetInCU: 0x7DBB8, offset: 0x7DBB8, size: 0x8, addend: 0x0, symName: __ZN3DEM28ForceMomentSphereSphereHertz18compute_force_pairEiid, symObjAddr: 0x3670, symBinAddr: 0x100005B9C, symSize: 0x60C }
  - { offsetInCU: 0x81FBD, offset: 0x81FBD, size: 0x8, addend: 0x0, symName: __ZN3DEM28ForceMomentSphereSphereHertz25get_overlap_tangent_valueENSt3__14pairIiiEE, symObjAddr: 0x3C7C, symBinAddr: 0x1000061A8, symSize: 0x164 }
  - { offsetInCU: 0x82BC1, offset: 0x82BC1, size: 0x8, addend: 0x0, symName: __ZN3DEM13InsertMeshSTL6updateEid, symObjAddr: 0x3DE0, symBinAddr: 0x10000630C, symSize: 0xAF8 }
  - { offsetInCU: 0x84D09, offset: 0x84D09, size: 0x8, addend: 0x0, symName: __ZNSt3__114basic_ifstreamIcNS_11char_traitsIcEEEC1ERKNS_12basic_stringIcS2_NS_9allocatorIcEEEEj, symObjAddr: 0x48D8, symBinAddr: 0x100006E04, symSize: 0x118 }
  - { offsetInCU: 0x84E90, offset: 0x84E90, size: 0x8, addend: 0x0, symName: __ZNSt3__16vectorIN3DEM4MeshENS_9allocatorIS2_EEE21__push_back_slow_pathIRKS2_EEvOT_, symObjAddr: 0x7E7C, symBinAddr: 0x10000A3A8, symSize: 0x1D0 }
  - { offsetInCU: 0x8577E, offset: 0x8577E, size: 0x8, addend: 0x0, symName: __ZNKSt3__16vectorIN3DEM4MeshENS_9allocatorIS2_EEE20__throw_length_errorB8ue170006Ev, symObjAddr: 0x804C, symBinAddr: 0x10000A578, symSize: 0x14 }
  - { offsetInCU: 0x85792, offset: 0x85792, size: 0x8, addend: 0x0, symName: __ZNKSt3__16vectorIN5Eigen6MatrixIdLi3ELi1ELi0ELi3ELi1EEENS_9allocatorIS3_EEE20__throw_length_errorB8ue170006Ev, symObjAddr: 0x7E68, symBinAddr: 0x10000A394, symSize: 0x14 }
  - { offsetInCU: 0x857BC, offset: 0x857BC, size: 0x8, addend: 0x0, symName: __ZNSt3__16vectorIN3DEM4MeshENS_9allocatorIS2_EEE21__push_back_slow_pathIRKS2_EEvOT_, symObjAddr: 0x7E7C, symBinAddr: 0x10000A3A8, symSize: 0x1D0 }
  - { offsetInCU: 0x857C7, offset: 0x857C7, size: 0x8, addend: 0x0, symName: __ZNSt3__114basic_ifstreamIcNS_11char_traitsIcEEED1Ev, symObjAddr: 0x49F0, symBinAddr: 0x100006F1C, symSize: 0x58 }
  - { offsetInCU: 0x85DDA, offset: 0x85DDA, size: 0x8, addend: 0x0, symName: __ZN3DEM15InsertSphereCSV6updateEid, symObjAddr: 0x4A48, symBinAddr: 0x100006F74, symSize: 0x750 }
  - { offsetInCU: 0x884B1, offset: 0x884B1, size: 0x8, addend: 0x0, symName: __ZNSt3__16vectorIN3DEM6SphereENS_9allocatorIS2_EEE21__push_back_slow_pathIRKS2_EEvOT_, symObjAddr: 0x8060, symBinAddr: 0x10000A58C, symSize: 0x204 }
  - { offsetInCU: 0x88E36, offset: 0x88E36, size: 0x8, addend: 0x0, symName: __ZNKSt3__16vectorIN3DEM6SphereENS_9allocatorIS2_EEE20__throw_length_errorB8ue170006Ev, symObjAddr: 0x8264, symBinAddr: 0x10000A790, symSize: 0x14 }
  - { offsetInCU: 0x88E4F, offset: 0x88E4F, size: 0x8, addend: 0x0, symName: __ZN3DEM14ParameterUnary9get_valueEi, symObjAddr: 0x5198, symBinAddr: 0x1000076C4, symSize: 0xC }
  - { offsetInCU: 0x88E78, offset: 0x88E78, size: 0x8, addend: 0x0, symName: __ZN3DEM14ParameterUnary9get_valueEi, symObjAddr: 0x5198, symBinAddr: 0x1000076C4, symSize: 0xC }
  - { offsetInCU: 0x89543, offset: 0x89543, size: 0x8, addend: 0x0, symName: __ZN3DEM14IntegralSphere6updateEid, symObjAddr: 0x51A4, symBinAddr: 0x1000076D0, symSize: 0x204 }
  - { offsetInCU: 0x8C31C, offset: 0x8C31C, size: 0x8, addend: 0x0, symName: __ZN3DEM6Solver16set_insertdeleteENSt3__16vectorIPNS_16InsertDeleteBaseENS1_9allocatorIS4_EEEE, symObjAddr: 0x53A8, symBinAddr: 0x1000078D4, symSize: 0xE4 }
  - { offsetInCU: 0x8C800, offset: 0x8C800, size: 0x8, addend: 0x0, symName: __ZNSt3__16vectorIPN3DEM16InsertDeleteBaseENS_9allocatorIS3_EEE18__assign_with_sizeB8ue170006IPS3_S8_EEvT_T0_l, symObjAddr: 0x8278, symBinAddr: 0x10000A7A4, symSize: 0x144 }
  - { offsetInCU: 0x8D21B, offset: 0x8D21B, size: 0x8, addend: 0x0, symName: __ZNKSt3__16vectorIPN3DEM16InsertDeleteBaseENS_9allocatorIS3_EEE20__throw_length_errorB8ue170006Ev, symObjAddr: 0x83BC, symBinAddr: 0x10000A8E8, symSize: 0x14 }
  - { offsetInCU: 0x8D23F, offset: 0x8D23F, size: 0x8, addend: 0x0, symName: __ZNSt3__112__hash_tableIPN3DEM9BaseGroupENS_4hashIS3_EENS_8equal_toIS3_EENS_9allocatorIS3_EEE25__emplace_unique_key_argsIS3_JRKS3_EEENS_4pairINS_15__hash_iteratorIPNS_11__hash_nodeIS3_PvEEEEbEERKT_DpOT0_, symObjAddr: 0x83D0, symBinAddr: 0x10000A8FC, symSize: 0x348 }
  - { offsetInCU: 0x8D991, offset: 0x8D991, size: 0x8, addend: 0x0, symName: __ZN3DEM6Solver10set_modifyENSt3__16vectorIPNS_10ModifyBaseENS1_9allocatorIS4_EEEE, symObjAddr: 0x548C, symBinAddr: 0x1000079B8, symSize: 0xE4 }
  - { offsetInCU: 0x8DE64, offset: 0x8DE64, size: 0x8, addend: 0x0, symName: __ZNSt3__16vectorIPN3DEM10ModifyBaseENS_9allocatorIS3_EEE18__assign_with_sizeB8ue170006IPS3_S8_EEvT_T0_l, symObjAddr: 0x88C4, symBinAddr: 0x10000ADF0, symSize: 0x144 }
  - { offsetInCU: 0x8E87F, offset: 0x8E87F, size: 0x8, addend: 0x0, symName: __ZNKSt3__16vectorIPN3DEM10ModifyBaseENS_9allocatorIS3_EEE20__throw_length_errorB8ue170006Ev, symObjAddr: 0x8A08, symBinAddr: 0x10000AF34, symSize: 0x14 }
  - { offsetInCU: 0x8E93E, offset: 0x8E93E, size: 0x8, addend: 0x0, symName: __ZN3DEM6Solver15set_forcemomentENSt3__16vectorIPNS_15ForceMomentBaseENS1_9allocatorIS4_EEEE, symObjAddr: 0x5570, symBinAddr: 0x100007A9C, symSize: 0xE4 }
  - { offsetInCU: 0x8EE11, offset: 0x8EE11, size: 0x8, addend: 0x0, symName: __ZNSt3__16vectorIPN3DEM15ForceMomentBaseENS_9allocatorIS3_EEE18__assign_with_sizeB8ue170006IPS3_S8_EEvT_T0_l, symObjAddr: 0x8A1C, symBinAddr: 0x10000AF48, symSize: 0x144 }
  - { offsetInCU: 0x8F82C, offset: 0x8F82C, size: 0x8, addend: 0x0, symName: __ZNKSt3__16vectorIPN3DEM15ForceMomentBaseENS_9allocatorIS3_EEE20__throw_length_errorB8ue170006Ev, symObjAddr: 0x8B60, symBinAddr: 0x10000B08C, symSize: 0x14 }
  - { offsetInCU: 0x8F8EB, offset: 0x8F8EB, size: 0x8, addend: 0x0, symName: __ZN3DEM6Solver12set_integralENSt3__16vectorIPNS_12IntegralBaseENS1_9allocatorIS4_EEEE, symObjAddr: 0x5654, symBinAddr: 0x100007B80, symSize: 0xE4 }
  - { offsetInCU: 0x8FDBE, offset: 0x8FDBE, size: 0x8, addend: 0x0, symName: __ZNSt3__16vectorIPN3DEM12IntegralBaseENS_9allocatorIS3_EEE18__assign_with_sizeB8ue170006IPS3_S8_EEvT_T0_l, symObjAddr: 0x8B74, symBinAddr: 0x10000B0A0, symSize: 0x144 }
  - { offsetInCU: 0x907D9, offset: 0x907D9, size: 0x8, addend: 0x0, symName: __ZNKSt3__16vectorIPN3DEM12IntegralBaseENS_9allocatorIS3_EEE20__throw_length_errorB8ue170006Ev, symObjAddr: 0x8CB8, symBinAddr: 0x10000B1E4, symSize: 0x14 }
  - { offsetInCU: 0x907FD, offset: 0x907FD, size: 0x8, addend: 0x0, symName: __ZN3DEM6Solver12set_timestepEiid, symObjAddr: 0x5738, symBinAddr: 0x100007C64, symSize: 0xC }
  - { offsetInCU: 0x90BB7, offset: 0x90BB7, size: 0x8, addend: 0x0, symName: __ZN3DEM6Solver5solveEb, symObjAddr: 0x5744, symBinAddr: 0x100007C70, symSize: 0x4E4 }
  - { offsetInCU: 0x91BC4, offset: 0x91BC4, size: 0x8, addend: 0x0, symName: __ZNKSt3__16vectorIPN3DEM9BaseGroupENS_9allocatorIS3_EEE20__throw_length_errorB8ue170006Ev, symObjAddr: 0x6FC4, symBinAddr: 0x1000094F0, symSize: 0x14 }
  - { offsetInCU: 0x91BEE, offset: 0x91BEE, size: 0x8, addend: 0x0, symName: __ZNKSt3__112basic_stringIcNS_11char_traitsIcEENS_9allocatorIcEEE20__throw_length_errorB8ue170006Ev, symObjAddr: 0x6FD8, symBinAddr: 0x100009504, symSize: 0x14 }
  - { offsetInCU: 0x938AC, offset: 0x938AC, size: 0x8, addend: 0x0, symName: _main, symObjAddr: 0x5C28, symBinAddr: 0x100008154, symSize: 0xCCC }
  - { offsetInCU: 0x9CC58, offset: 0x9CC58, size: 0x8, addend: 0x0, symName: __ZNSt3__16vectorIdNS_9allocatorIdEEE18__assign_with_sizeB8ue170006IPdS5_EEvT_T0_l, symObjAddr: 0x6CA8, symBinAddr: 0x1000091D4, symSize: 0x144 }
  - { offsetInCU: 0x9D673, offset: 0x9D673, size: 0x8, addend: 0x0, symName: __ZNKSt3__16vectorIdNS_9allocatorIdEEE20__throw_length_errorB8ue170006Ev, symObjAddr: 0x6DEC, symBinAddr: 0x100009318, symSize: 0x14 }
  - { offsetInCU: 0x9D697, offset: 0x9D697, size: 0x8, addend: 0x0, symName: __ZN3DEM15ParameterBinaryC2EiNSt3__16vectorIdNS1_9allocatorIdEEEE, symObjAddr: 0x6E9C, symBinAddr: 0x1000093C8, symSize: 0xE8 }
  - { offsetInCU: 0x9D929, offset: 0x9D929, size: 0x8, addend: 0x0, symName: __ZNSt3__16__treeINS_12__value_typeINS_4pairIiiEEdEENS_19__map_value_compareIS3_S4_NS_4lessIS3_EELb1EEENS_9allocatorIS4_EEE7destroyEPNS_11__tree_nodeIS4_PvEE, symObjAddr: 0x6F84, symBinAddr: 0x1000094B0, symSize: 0x40 }
  - { offsetInCU: 0x9DA61, offset: 0x9DA61, size: 0x8, addend: 0x0, symName: __ZN3DEM6SolverD1Ev, symObjAddr: 0x68F4, symBinAddr: 0x100008E20, symSize: 0x88 }
  - { offsetInCU: 0x9E2A8, offset: 0x9E2A8, size: 0x8, addend: 0x0, symName: __ZN3DEM26ForceMomentSphereMeshHertzD1Ev, symObjAddr: 0x697C, symBinAddr: 0x100008EA8, symSize: 0x58 }
  - { offsetInCU: 0x9E60F, offset: 0x9E60F, size: 0x8, addend: 0x0, symName: __ZN3DEM15ParameterBinaryD1Ev, symObjAddr: 0x69D4, symBinAddr: 0x100008F00, symSize: 0x84 }
  - { offsetInCU: 0x9EA56, offset: 0x9EA56, size: 0x8, addend: 0x0, symName: __ZN3DEM9MeshGroupD1Ev, symObjAddr: 0x6A58, symBinAddr: 0x100008F84, symSize: 0x68 }
  - { offsetInCU: 0x9EE10, offset: 0x9EE10, size: 0x8, addend: 0x0, symName: __ZN3DEM11SphereGroupD1Ev, symObjAddr: 0x6AC0, symBinAddr: 0x100008FEC, symSize: 0x68 }
  - { offsetInCU: 0x9F305, offset: 0x9F305, size: 0x8, addend: 0x0, symName: __ZN3DEM19ForceSphereConstant17get_group_ptr_vecEv, symObjAddr: 0x6B28, symBinAddr: 0x100009054, symSize: 0x3C }
  - { offsetInCU: 0x9F58D, offset: 0x9F58D, size: 0x8, addend: 0x0, symName: __ZN3DEM26ForceMomentSphereMeshHertz17get_group_ptr_vecEv, symObjAddr: 0x6B64, symBinAddr: 0x100009090, symSize: 0x48 }
  - { offsetInCU: 0x9F815, offset: 0x9F815, size: 0x8, addend: 0x0, symName: __ZN3DEM28ForceMomentSphereSphereHertz17get_group_ptr_vecEv, symObjAddr: 0x6BAC, symBinAddr: 0x1000090D8, symSize: 0x3C }
  - { offsetInCU: 0x9FA9D, offset: 0x9FA9D, size: 0x8, addend: 0x0, symName: __ZN3DEM13InsertMeshSTL17get_group_ptr_vecEv, symObjAddr: 0x6BE8, symBinAddr: 0x100009114, symSize: 0x3C }
  - { offsetInCU: 0x9FD25, offset: 0x9FD25, size: 0x8, addend: 0x0, symName: __ZN3DEM15InsertSphereCSV17get_group_ptr_vecEv, symObjAddr: 0x6C24, symBinAddr: 0x100009150, symSize: 0x3C }
  - { offsetInCU: 0x9FFAD, offset: 0x9FFAD, size: 0x8, addend: 0x0, symName: __ZN3DEM14IntegralSphere17get_group_ptr_vecEv, symObjAddr: 0x6C60, symBinAddr: 0x10000918C, symSize: 0x3C }
  - { offsetInCU: 0xA039F, offset: 0xA039F, size: 0x8, addend: 0x0, symName: __ZNSt12length_errorC1B8ue170006EPKc, symObjAddr: 0x6E50, symBinAddr: 0x10000937C, symSize: 0x24 }
  - { offsetInCU: 0xA07B1, offset: 0xA07B1, size: 0x8, addend: 0x0, symName: __ZNKSt3__16vectorINS_12basic_stringIcNS_11char_traitsIcEENS_9allocatorIcEEEENS4_IS6_EEE20__throw_length_errorB8ue170006Ev, symObjAddr: 0x7278, symBinAddr: 0x1000097A4, symSize: 0x14 }
  - { offsetInCU: 0xA07DB, offset: 0xA07DB, size: 0x8, addend: 0x0, symName: __ZNSt3__124__put_character_sequenceB8ue170006IcNS_11char_traitsIcEEEERNS_13basic_ostreamIT_T0_EES7_PKS4_m, symObjAddr: 0x728C, symBinAddr: 0x1000097B8, symSize: 0x164 }
  - { offsetInCU: 0xA07E6, offset: 0xA07E6, size: 0x8, addend: 0x0, symName: __ZNSt3__114__split_bufferINS_12basic_stringIcNS_11char_traitsIcEENS_9allocatorIcEEEERNS4_IS6_EEED1Ev, symObjAddr: 0x7214, symBinAddr: 0x100009740, symSize: 0x64 }
  - { offsetInCU: 0xA0EEA, offset: 0xA0EEA, size: 0x8, addend: 0x0, symName: __ZNKSt3__16vectorINS0_IdNS_9allocatorIdEEEENS1_IS3_EEE20__throw_length_errorB8ue170006Ev, symObjAddr: 0x77A0, symBinAddr: 0x100009CCC, symSize: 0x14 }
  - { offsetInCU: 0xA0F14, offset: 0xA0F14, size: 0x8, addend: 0x0, symName: __ZNSt3__127__tree_balance_after_insertB8ue170006IPNS_16__tree_node_baseIPvEEEEvT_S5_, symObjAddr: 0x77B4, symBinAddr: 0x100009CE0, symSize: 0x1B4 }
  - { offsetInCU: 0xA0F1F, offset: 0xA0F1F, size: 0x8, addend: 0x0, symName: __ZNSt3__128__exception_guard_exceptionsINS_6vectorINS1_IdNS_9allocatorIdEEEENS2_IS4_EEE16__destroy_vectorEED1B8ue170006Ev, symObjAddr: 0x7708, symBinAddr: 0x100009C34, symSize: 0x98 }
  - { offsetInCU: 0xA14E3, offset: 0xA14E3, size: 0x8, addend: 0x0, symName: __ZNKSt3__16vectorIN3DEM4MeshENS_9allocatorIS2_EEE20__throw_length_errorB8ue170006Ev, symObjAddr: 0x804C, symBinAddr: 0x10000A578, symSize: 0x14 }
  - { offsetInCU: 0xA150D, offset: 0xA150D, size: 0x8, addend: 0x0, symName: __ZNSt3__16vectorIN3DEM6SphereENS_9allocatorIS2_EEE21__push_back_slow_pathIRKS2_EEvOT_, symObjAddr: 0x8060, symBinAddr: 0x10000A58C, symSize: 0x204 }
  - { offsetInCU: 0xA175D, offset: 0xA175D, size: 0x8, addend: 0x0, symName: __ZNKSt3__16vectorIN3DEM6SphereENS_9allocatorIS2_EEE20__throw_length_errorB8ue170006Ev, symObjAddr: 0x8264, symBinAddr: 0x10000A790, symSize: 0x14 }
  - { offsetInCU: 0xA1787, offset: 0xA1787, size: 0x8, addend: 0x0, symName: __ZNSt3__16vectorIPN3DEM16InsertDeleteBaseENS_9allocatorIS3_EEE18__assign_with_sizeB8ue170006IPS3_S8_EEvT_T0_l, symObjAddr: 0x8278, symBinAddr: 0x10000A7A4, symSize: 0x144 }
  - { offsetInCU: 0xA1901, offset: 0xA1901, size: 0x8, addend: 0x0, symName: __ZNKSt3__16vectorIPN3DEM16InsertDeleteBaseENS_9allocatorIS3_EEE20__throw_length_errorB8ue170006Ev, symObjAddr: 0x83BC, symBinAddr: 0x10000A8E8, symSize: 0x14 }
  - { offsetInCU: 0xA192B, offset: 0xA192B, size: 0x8, addend: 0x0, symName: __ZNSt3__112__hash_tableIPN3DEM9BaseGroupENS_4hashIS3_EENS_8equal_toIS3_EENS_9allocatorIS3_EEE25__emplace_unique_key_argsIS3_JRKS3_EEENS_4pairINS_15__hash_iteratorIPNS_11__hash_nodeIS3_PvEEEEbEERKT_DpOT0_, symObjAddr: 0x83D0, symBinAddr: 0x10000A8FC, symSize: 0x348 }
  - { offsetInCU: 0xA1D7D, offset: 0xA1D7D, size: 0x8, addend: 0x0, symName: __ZNSt3__112__hash_tableIPN3DEM9BaseGroupENS_4hashIS3_EENS_8equal_toIS3_EENS_9allocatorIS3_EEE11__do_rehashILb1EEEvm, symObjAddr: 0x8718, symBinAddr: 0x10000AC44, symSize: 0x1AC }
  - { offsetInCU: 0xA21D7, offset: 0xA21D7, size: 0x8, addend: 0x0, symName: __ZNSt3__16vectorIPN3DEM10ModifyBaseENS_9allocatorIS3_EEE18__assign_with_sizeB8ue170006IPS3_S8_EEvT_T0_l, symObjAddr: 0x88C4, symBinAddr: 0x10000ADF0, symSize: 0x144 }
  - { offsetInCU: 0xA243B, offset: 0xA243B, size: 0x8, addend: 0x0, symName: __ZNKSt3__16vectorIPN3DEM10ModifyBaseENS_9allocatorIS3_EEE20__throw_length_errorB8ue170006Ev, symObjAddr: 0x8A08, symBinAddr: 0x10000AF34, symSize: 0x14 }
  - { offsetInCU: 0xA2465, offset: 0xA2465, size: 0x8, addend: 0x0, symName: __ZNSt3__16vectorIPN3DEM15ForceMomentBaseENS_9allocatorIS3_EEE18__assign_with_sizeB8ue170006IPS3_S8_EEvT_T0_l, symObjAddr: 0x8A1C, symBinAddr: 0x10000AF48, symSize: 0x144 }
  - { offsetInCU: 0xA25DF, offset: 0xA25DF, size: 0x8, addend: 0x0, symName: __ZNKSt3__16vectorIPN3DEM15ForceMomentBaseENS_9allocatorIS3_EEE20__throw_length_errorB8ue170006Ev, symObjAddr: 0x8B60, symBinAddr: 0x10000B08C, symSize: 0x14 }
  - { offsetInCU: 0xA2609, offset: 0xA2609, size: 0x8, addend: 0x0, symName: __ZNSt3__16vectorIPN3DEM12IntegralBaseENS_9allocatorIS3_EEE18__assign_with_sizeB8ue170006IPS3_S8_EEvT_T0_l, symObjAddr: 0x8B74, symBinAddr: 0x10000B0A0, symSize: 0x144 }
  - { offsetInCU: 0xA2783, offset: 0xA2783, size: 0x8, addend: 0x0, symName: __ZNKSt3__16vectorIPN3DEM12IntegralBaseENS_9allocatorIS3_EEE20__throw_length_errorB8ue170006Ev, symObjAddr: 0x8CB8, symBinAddr: 0x10000B1E4, symSize: 0x14 }
...
